target datalayout = "e-m:e-p270:32:32-p271:32:32-p272:64:64-i64:64-i128:128-f80:128-n8:16:32:64-S128"
target triple = "x86_64-pc-linux-gnu"

%struct.AVFilterContext = type { ptr, ptr, ptr, ptr, ptr, i32, ptr, ptr, i32, ptr, ptr, i32, i32, ptr, ptr, ptr, ptr, i32, ptr, i32, i32 }
%struct.FIREqualizerContext = type { ptr, ptr, ptr, ptr, ptr, ptr, ptr, ptr, ptr, ptr, ptr, ptr, ptr, ptr, ptr, i32, i32, i32, ptr, ptr, ptr, ptr, ptr, ptr, ptr, ptr, ptr, ptr, ptr, i32, i32, i64, i32, i32, ptr, ptr, ptr, ptr, double, double, i32, i32, i32, i32, i32, ptr, i32, i32, i32, i32, i32, [4096 x %struct.GainEntry] }
%struct.GainEntry = type { double, double }

@.str.32 = private unnamed_addr constant [5 x i8] c"gain\00", align 1
@.str.35 = private unnamed_addr constant [11 x i8] c"gain_entry\00", align 1
@.str.88 = private unnamed_addr constant [29 x i8] c"equal gain, do not rebuild.\0A\00", align 1
@.str.89 = private unnamed_addr constant [35 x i8] c"equal gain_entry, do not rebuild.\0A\00", align 1

; Function Attrs: nounwind uwtable
define internal i32 @process_command(ptr noundef %0, ptr noundef %1, ptr noundef %2, ptr noundef %3, i32 noundef %4, i32 noundef %5) #1 {
  %7 = alloca i32, align 4
  %8 = alloca ptr, align 8
  %9 = alloca ptr, align 8
  %10 = alloca ptr, align 8
  %11 = alloca ptr, align 8
  %12 = alloca i32, align 4
  %13 = alloca i32, align 4
  %14 = alloca ptr, align 8
  %15 = alloca i32, align 4
  %16 = alloca ptr, align 8
  %17 = alloca i32, align 4
  %18 = alloca ptr, align 8
  store ptr %0, ptr %8, align 8, !tbaa !4
  store ptr %1, ptr %9, align 8, !tbaa !24
  store ptr %2, ptr %10, align 8, !tbaa !24
  store ptr %3, ptr %11, align 8, !tbaa !24
  store i32 %4, ptr %12, align 4, !tbaa !25
  store i32 %5, ptr %13, align 4, !tbaa !25
  call void @llvm.lifetime.start.p0(i64 8, ptr %14) #12
  %19 = load ptr, ptr %8, align 8, !tbaa !4
  %20 = getelementptr inbounds nuw %struct.AVFilterContext, ptr %19, i32 0, i32 9
  %21 = load ptr, ptr %20, align 8, !tbaa !9
  store ptr %21, ptr %14, align 8, !tbaa !22
  call void @llvm.lifetime.start.p0(i64 4, ptr %15) #12
  store i32 -38, ptr %15, align 4, !tbaa !25
  %22 = load ptr, ptr %9, align 8, !tbaa !24
  %23 = call i32 @strcmp(ptr noundef %22, ptr noundef @.str.32) #13
  %24 = icmp ne i32 %23, 0
  br i1 %24, label %97, label %25

25:                                               ; preds = %6
  call void @llvm.lifetime.start.p0(i64 8, ptr %16) #12
  %26 = load ptr, ptr %14, align 8, !tbaa !22
  %27 = getelementptr inbounds nuw %struct.FIREqualizerContext, ptr %26, i32 0, i32 34
  %28 = load ptr, ptr %27, align 8, !tbaa !26
  %29 = icmp ne ptr %28, null
  br i1 %29, label %30, label %35

30:                                               ; preds = %25
  %31 = load ptr, ptr %14, align 8, !tbaa !22
  %32 = getelementptr inbounds nuw %struct.FIREqualizerContext, ptr %31, i32 0, i32 34
  %33 = load ptr, ptr %32, align 8, !tbaa !26
  %34 = icmp ne ptr %33, null
  br i1 %34, label %40, label %60

35:                                               ; preds = %25
  %36 = load ptr, ptr %14, align 8, !tbaa !22
  %37 = getelementptr inbounds nuw %struct.FIREqualizerContext, ptr %36, i32 0, i32 36
  %38 = load ptr, ptr %37, align 8, !tbaa !33
  %39 = icmp ne ptr %38, null
  br i1 %39, label %40, label %60

40:                                               ; preds = %35, %30
  %41 = load ptr, ptr %14, align 8, !tbaa !22
  %42 = getelementptr inbounds nuw %struct.FIREqualizerContext, ptr %41, i32 0, i32 34
  %43 = load ptr, ptr %42, align 8, !tbaa !26
  %44 = icmp ne ptr %43, null
  br i1 %44, label %45, label %49

45:                                               ; preds = %40
  %46 = load ptr, ptr %14, align 8, !tbaa !22
  %47 = getelementptr inbounds nuw %struct.FIREqualizerContext, ptr %46, i32 0, i32 34
  %48 = load ptr, ptr %47, align 8, !tbaa !26
  br label %53

49:                                               ; preds = %40
  %50 = load ptr, ptr %14, align 8, !tbaa !22
  %51 = getelementptr inbounds nuw %struct.FIREqualizerContext, ptr %50, i32 0, i32 36
  %52 = load ptr, ptr %51, align 8, !tbaa !33
  br label %53

53:                                               ; preds = %49, %45
  %54 = phi ptr [ %48, %45 ], [ %52, %49 ]
  %55 = load ptr, ptr %10, align 8, !tbaa !24
  %56 = call i32 @strcmp(ptr noundef %54, ptr noundef %55) #13
  %57 = icmp ne i32 %56, 0
  br i1 %57, label %60, label %58

58:                                               ; preds = %53
  %59 = load ptr, ptr %8, align 8, !tbaa !4
  call void (ptr, i32, ptr, ...) @av_log(ptr noundef %59, i32 noundef 48, ptr noundef @.str.88)
  store i32 0, ptr %7, align 4
  store i32 1, ptr %17, align 4
  br label %94

60:                                               ; preds = %53, %35, %30
  %61 = load ptr, ptr %10, align 8, !tbaa !24
  %62 = call noalias ptr @av_strdup(ptr noundef %61)
  store ptr %62, ptr %16, align 8, !tbaa !24
  %63 = load ptr, ptr %16, align 8, !tbaa !24
  %64 = icmp ne ptr %63, null
  br i1 %64, label %66, label %65

65:                                               ; preds = %60
  store i32 -12, ptr %7, align 4
  store i32 1, ptr %17, align 4
  br label %94

66:                                               ; preds = %60
  %67 = load ptr, ptr %8, align 8, !tbaa !4
  %68 = load ptr, ptr %16, align 8, !tbaa !24
  %69 = load ptr, ptr %14, align 8, !tbaa !22
  %70 = getelementptr inbounds nuw %struct.FIREqualizerContext, ptr %69, i32 0, i32 35
  %71 = load ptr, ptr %70, align 8, !tbaa !34
  %72 = icmp ne ptr %71, null
  br i1 %72, label %73, label %77

73:                                               ; preds = %66
  %74 = load ptr, ptr %14, align 8, !tbaa !22
  %75 = getelementptr inbounds nuw %struct.FIREqualizerContext, ptr %74, i32 0, i32 35
  %76 = load ptr, ptr %75, align 8, !tbaa !34
  br label %81

77:                                               ; preds = %66
  %78 = load ptr, ptr %14, align 8, !tbaa !22
  %79 = getelementptr inbounds nuw %struct.FIREqualizerContext, ptr %78, i32 0, i32 37
  %80 = load ptr, ptr %79, align 8, !tbaa !35
  br label %81

81:                                               ; preds = %77, %73
  %82 = phi ptr [ %76, %73 ], [ %80, %77 ]
  %83 = call i32 @generate_kernel(ptr noundef %67, ptr noundef %68, ptr noundef %82)
  store i32 %83, ptr %15, align 4, !tbaa !25
  %84 = load i32, ptr %15, align 4, !tbaa !25
  %85 = icmp sge i32 %84, 0
  br i1 %85, label %86, label %92

86:                                               ; preds = %81
  %87 = load ptr, ptr %14, align 8, !tbaa !22
  %88 = getelementptr inbounds nuw %struct.FIREqualizerContext, ptr %87, i32 0, i32 34
  call void @av_freep(ptr noundef %88)
  %89 = load ptr, ptr %16, align 8, !tbaa !24
  %90 = load ptr, ptr %14, align 8, !tbaa !22
  %91 = getelementptr inbounds nuw %struct.FIREqualizerContext, ptr %90, i32 0, i32 34
  store ptr %89, ptr %91, align 8, !tbaa !26
  br label %93

92:                                               ; preds = %81
  call void @av_freep(ptr noundef %16)
  br label %93

93:                                               ; preds = %92, %86
  store i32 0, ptr %17, align 4
  br label %94

94:                                               ; preds = %93, %65, %58
  call void @llvm.lifetime.end.p0(i64 8, ptr %16) #12
  %95 = load i32, ptr %17, align 4
  switch i32 %95, label %176 [
    i32 0, label %96
  ]

96:                                               ; preds = %94
  br label %174

97:                                               ; preds = %6
  %98 = load ptr, ptr %9, align 8, !tbaa !24
  %99 = call i32 @strcmp(ptr noundef %98, ptr noundef @.str.35) #13
  %100 = icmp ne i32 %99, 0
  br i1 %100, label %173, label %101

101:                                              ; preds = %97
  call void @llvm.lifetime.start.p0(i64 8, ptr %18) #12
  %102 = load ptr, ptr %14, align 8, !tbaa !22
  %103 = getelementptr inbounds nuw %struct.FIREqualizerContext, ptr %102, i32 0, i32 35
  %104 = load ptr, ptr %103, align 8, !tbaa !34
  %105 = icmp ne ptr %104, null
  br i1 %105, label %106, label %111

106:                                              ; preds = %101
  %107 = load ptr, ptr %14, align 8, !tbaa !22
  %108 = getelementptr inbounds nuw %struct.FIREqualizerContext, ptr %107, i32 0, i32 35
  %109 = load ptr, ptr %108, align 8, !tbaa !34
  %110 = icmp ne ptr %109, null
  br i1 %110, label %116, label %136

111:                                              ; preds = %101
  %112 = load ptr, ptr %14, align 8, !tbaa !22
  %113 = getelementptr inbounds nuw %struct.FIREqualizerContext, ptr %112, i32 0, i32 37
  %114 = load ptr, ptr %113, align 8, !tbaa !35
  %115 = icmp ne ptr %114, null
  br i1 %115, label %116, label %136

116:                                              ; preds = %111, %106
  %117 = load ptr, ptr %14, align 8, !tbaa !22
  %118 = getelementptr inbounds nuw %struct.FIREqualizerContext, ptr %117, i32 0, i32 35
  %119 = load ptr, ptr %118, align 8, !tbaa !34
  %120 = icmp ne ptr %119, null
  br i1 %120, label %121, label %125

121:                                              ; preds = %116
  %122 = load ptr, ptr %14, align 8, !tbaa !22
  %123 = getelementptr inbounds nuw %struct.FIREqualizerContext, ptr %122, i32 0, i32 35
  %124 = load ptr, ptr %123, align 8, !tbaa !34
  br label %129

125:                                              ; preds = %116
  %126 = load ptr, ptr %14, align 8, !tbaa !22
  %127 = getelementptr inbounds nuw %struct.FIREqualizerContext, ptr %126, i32 0, i32 37
  %128 = load ptr, ptr %127, align 8, !tbaa !35
  br label %129

129:                                              ; preds = %125, %121
  %130 = phi ptr [ %124, %121 ], [ %128, %125 ]
  %131 = load ptr, ptr %10, align 8, !tbaa !24
  %132 = call i32 @strcmp(ptr noundef %130, ptr noundef %131) #13
  %133 = icmp ne i32 %132, 0
  br i1 %133, label %136, label %134

134:                                              ; preds = %129
  %135 = load ptr, ptr %8, align 8, !tbaa !4
  call void (ptr, i32, ptr, ...) @av_log(ptr noundef %135, i32 noundef 48, ptr noundef @.str.89)
  store i32 0, ptr %7, align 4
  store i32 1, ptr %17, align 4
  br label %170

136:                                              ; preds = %129, %111, %106
  %137 = load ptr, ptr %10, align 8, !tbaa !24
  %138 = call noalias ptr @av_strdup(ptr noundef %137)
  store ptr %138, ptr %18, align 8, !tbaa !24
  %139 = load ptr, ptr %18, align 8, !tbaa !24
  %140 = icmp ne ptr %139, null
  br i1 %140, label %142, label %141

141:                                              ; preds = %136
  store i32 -12, ptr %7, align 4
  store i32 1, ptr %17, align 4
  br label %170

142:                                              ; preds = %136
  %143 = load ptr, ptr %8, align 8, !tbaa !4
  %144 = load ptr, ptr %14, align 8, !tbaa !22
  %145 = getelementptr inbounds nuw %struct.FIREqualizerContext, ptr %144, i32 0, i32 34
  %146 = load ptr, ptr %145, align 8, !tbaa !26
  %147 = icmp ne ptr %146, null
  br i1 %147, label %148, label %152

148:                                              ; preds = %142
  %149 = load ptr, ptr %14, align 8, !tbaa !22
  %150 = getelementptr inbounds nuw %struct.FIREqualizerContext, ptr %149, i32 0, i32 34
  %151 = load ptr, ptr %150, align 8, !tbaa !26
  br label %156

152:                                              ; preds = %142
  %153 = load ptr, ptr %14, align 8, !tbaa !22
  %154 = getelementptr inbounds nuw %struct.FIREqualizerContext, ptr %153, i32 0, i32 36
  %155 = load ptr, ptr %154, align 8, !tbaa !33
  br label %156

156:                                              ; preds = %152, %148
  %157 = phi ptr [ %151, %148 ], [ %155, %152 ]
  %158 = load ptr, ptr %18, align 8, !tbaa !24
  %159 = call i32 @generate_kernel(ptr noundef %143, ptr noundef %157, ptr noundef %158)
  store i32 %159, ptr %15, align 4, !tbaa !25
  %160 = load i32, ptr %15, align 4, !tbaa !25
  %161 = icmp sge i32 %160, 0
  br i1 %161, label %162, label %168

162:                                              ; preds = %156
  %163 = load ptr, ptr %14, align 8, !tbaa !22
  %164 = getelementptr inbounds nuw %struct.FIREqualizerContext, ptr %163, i32 0, i32 35
  call void @av_freep(ptr noundef %164)
  %165 = load ptr, ptr %18, align 8, !tbaa !24
  %166 = load ptr, ptr %14, align 8, !tbaa !22
  %167 = getelementptr inbounds nuw %struct.FIREqualizerContext, ptr %166, i32 0, i32 35
  store ptr %165, ptr %167, align 8, !tbaa !34
  br label %169

168:                                              ; preds = %156
  call void @av_freep(ptr noundef %18)
  br label %169

169:                                              ; preds = %168, %162
  store i32 0, ptr %17, align 4
  br label %170

170:                                              ; preds = %169, %141, %134
  call void @llvm.lifetime.end.p0(i64 8, ptr %18) #12
  %171 = load i32, ptr %17, align 4
  switch i32 %171, label %176 [
    i32 0, label %172
  ]

172:                                              ; preds = %170
  br label %173

173:                                              ; preds = %172, %97
  br label %174

174:                                              ; preds = %173, %96
  %175 = load i32, ptr %15, align 4, !tbaa !25
  store i32 %175, ptr %7, align 4
  store i32 1, ptr %17, align 4
  br label %176

176:                                              ; preds = %174, %170, %94
  call void @llvm.lifetime.end.p0(i64 4, ptr %15) #12
  call void @llvm.lifetime.end.p0(i64 8, ptr %14) #12
  %177 = load i32, ptr %7, align 4
  ret i32 %177
}