; Function Attrs: nounwind uwtable
define internal range(i32 -2147483648, 1) i32 @process_command(ptr noundef %0, ptr noundef readonly captures(none) %1, ptr noundef %2, ptr readnone captures(none) %3, i32 %4, i32 %5) #1 {
  %7 = alloca ptr, align 8
  %8 = alloca ptr, align 8
  %9 = getelementptr inbounds nuw i8, ptr %0, i64 72
  %10 = load ptr, ptr %9, align 8, !tbaa !4
  %11 = tail call i32 @strcmp(ptr noundef nonnull dereferenceable(1) %1, ptr noundef nonnull dereferenceable(5) @.str.32) #15
  %.not = icmp eq i32 %11, 0
  br i1 %.not, label %12, label %37

12:                                               ; preds = %6
  call void @llvm.lifetime.start.p0(i64 8, ptr nonnull %7) #14
  %13 = getelementptr inbounds nuw i8, ptr %10, i64 248
  %14 = load ptr, ptr %13, align 8, !tbaa !20
  %.not49 = icmp eq ptr %14, null
  br i1 %.not49, label %15, label %18

15:                                               ; preds = %12
  %16 = getelementptr inbounds nuw i8, ptr %10, i64 264
  %17 = load ptr, ptr %16, align 8, !tbaa !27
  %.not50 = icmp eq ptr %17, null
  br i1 %.not50, label %22, label %18

18:                                               ; preds = %15, %12
  %19 = phi ptr [ %14, %12 ], [ %17, %15 ]
  %20 = tail call i32 @strcmp(ptr noundef nonnull dereferenceable(1) %19, ptr noundef nonnull dereferenceable(1) %2) #15
  %.not52 = icmp eq i32 %20, 0
  br i1 %.not52, label %21, label %22

21:                                               ; preds = %18
  tail call void (ptr, i32, ptr, ...) @av_log(ptr noundef nonnull %0, i32 noundef 48, ptr noundef nonnull @.str.88) #14
  br label %36

22:                                               ; preds = %18, %15
  %23 = tail call noalias ptr @av_strdup(ptr noundef %2) #14
  store ptr %23, ptr %7, align 8, !tbaa !28
  %.not53 = icmp eq ptr %23, null
  br i1 %.not53, label %36, label %24

24:                                               ; preds = %22
  %25 = getelementptr inbounds nuw i8, ptr %10, i64 256
  %26 = load ptr, ptr %25, align 8, !tbaa !29
  %.not54 = icmp eq ptr %26, null
  br i1 %.not54, label %27, label %30

27:                                               ; preds = %24
  %28 = getelementptr inbounds nuw i8, ptr %10, i64 272
  %29 = load ptr, ptr %28, align 8, !tbaa !30
  br label %30

30:                                               ; preds = %24, %27
  %31 = phi ptr [ %29, %27 ], [ %26, %24 ]
  %32 = tail call fastcc i32 @generate_kernel(ptr noundef nonnull %0, ptr noundef nonnull %23, ptr noundef %31)
  %33 = icmp sgt i32 %32, -1
  br i1 %33, label %34, label %35

34:                                               ; preds = %30
  tail call void @av_freep(ptr noundef nonnull %13) #14
  store ptr %23, ptr %13, align 8, !tbaa !20
  br label %.thread62

35:                                               ; preds = %30
  call void @av_freep(ptr noundef nonnull %7) #14
  br label %.thread62

.thread62:                                        ; preds = %35, %34
  call void @llvm.lifetime.end.p0(i64 8, ptr nonnull %7) #14
  br label %64

36:                                               ; preds = %22, %21
  %.041 = phi i32 [ 0, %21 ], [ -12, %22 ]
  call void @llvm.lifetime.end.p0(i64 8, ptr nonnull %7) #14
  br label %64

37:                                               ; preds = %6
  %38 = tail call i32 @strcmp(ptr noundef nonnull dereferenceable(1) %1, ptr noundef nonnull dereferenceable(11) @.str.35) #15
  %.not55 = icmp eq i32 %38, 0
  br i1 %.not55, label %39, label %64

39:                                               ; preds = %37
  call void @llvm.lifetime.start.p0(i64 8, ptr nonnull %8) #14
  %40 = getelementptr inbounds nuw i8, ptr %10, i64 256
  %41 = load ptr, ptr %40, align 8, !tbaa !29
  %.not56 = icmp eq ptr %41, null
  br i1 %.not56, label %42, label %45

42:                                               ; preds = %39
  %43 = getelementptr inbounds nuw i8, ptr %10, i64 272
  %44 = load ptr, ptr %43, align 8, !tbaa !30
  %.not57 = icmp eq ptr %44, null
  br i1 %.not57, label %49, label %45

45:                                               ; preds = %42, %39
  %46 = phi ptr [ %41, %39 ], [ %44, %42 ]
  %47 = tail call i32 @strcmp(ptr noundef nonnull dereferenceable(1) %46, ptr noundef nonnull dereferenceable(1) %2) #15
  %.not59 = icmp eq i32 %47, 0
  br i1 %.not59, label %48, label %49

48:                                               ; preds = %45
  tail call void (ptr, i32, ptr, ...) @av_log(ptr noundef nonnull %0, i32 noundef 48, ptr noundef nonnull @.str.89) #14
  br label %63

49:                                               ; preds = %45, %42
  %50 = tail call noalias ptr @av_strdup(ptr noundef %2) #14
  store ptr %50, ptr %8, align 8, !tbaa !28
  %.not60 = icmp eq ptr %50, null
  br i1 %.not60, label %63, label %51

51:                                               ; preds = %49
  %52 = getelementptr inbounds nuw i8, ptr %10, i64 248
  %53 = load ptr, ptr %52, align 8, !tbaa !20
  %.not61 = icmp eq ptr %53, null
  br i1 %.not61, label %54, label %57

54:                                               ; preds = %51
  %55 = getelementptr inbounds nuw i8, ptr %10, i64 264
  %56 = load ptr, ptr %55, align 8, !tbaa !27
  br label %57

57:                                               ; preds = %51, %54
  %58 = phi ptr [ %56, %54 ], [ %53, %51 ]
  %59 = tail call fastcc i32 @generate_kernel(ptr noundef nonnull %0, ptr noundef %58, ptr noundef nonnull %50)
  %60 = icmp sgt i32 %59, -1
  br i1 %60, label %61, label %62

61:                                               ; preds = %57
  tail call void @av_freep(ptr noundef nonnull %40) #14
  store ptr %50, ptr %40, align 8, !tbaa !29
  br label %.thread68

62:                                               ; preds = %57
  call void @av_freep(ptr noundef nonnull %8) #14
  br label %.thread68

.thread68:                                        ; preds = %62, %61
  call void @llvm.lifetime.end.p0(i64 8, ptr nonnull %8) #14
  br label %64

63:                                               ; preds = %49, %48
  %.243 = phi i32 [ 0, %48 ], [ -12, %49 ]
  call void @llvm.lifetime.end.p0(i64 8, ptr nonnull %8) #14
  br label %64

64:                                               ; preds = %37, %.thread62, %.thread68, %63, %36
  %.142 = phi i32 [ %.243, %63 ], [ %.041, %36 ], [ -38, %37 ], [ %32, %.thread62 ], [ %59, %.thread68 ]
  ret i32 %.142
}